target datalayout = "e-m:e-p270:32:32-p271:32:32-p272:64:64-i64:64-i128:128-f80:128-n8:16:32:64-S128"
target triple = "x86_64-pc-linux-gnu"

%"class.Ipopt::Matrix.base" = type <{ %"class.Ipopt::TaggedObject", %"class.Ipopt::SmartPtr", i32, i8 }>
%"class.Ipopt::TaggedObject" = type { %"class.Ipopt::ReferencedObject.base", %"class.Ipopt::Subject", i32, i32 }
%"class.Ipopt::ReferencedObject.base" = type <{ ptr, i32 }>
%"class.Ipopt::Subject" = type { ptr, %"class.std::vector" }
%"class.std::vector" = type { %"struct.std::_Vector_base" }
%"struct.std::_Vector_base" = type { %"struct.std::_Vector_base<Ipopt::Observer *, std::allocator<Ipopt::Observer *>>::_Vector_impl" }
%"struct.std::_Vector_base<Ipopt::Observer *, std::allocator<Ipopt::Observer *>>::_Vector_impl" = type { %"struct.std::_Vector_base<Ipopt::Observer *, std::allocator<Ipopt::Observer *>>::_Vector_impl_data" }
%"struct.std::_Vector_base<Ipopt::Observer *, std::allocator<Ipopt::Observer *>>::_Vector_impl_data" = type { ptr, ptr, ptr }
%"class.Ipopt::SmartPtr" = type { ptr }
%"class.Ipopt::SymTMatrix" = type <{ %"class.Ipopt::SymMatrix", ptr, ptr, i8, [7 x i8] }>
%"class.Ipopt::SymMatrix" = type { %"class.Ipopt::Matrix.base", ptr }
%"class.Ipopt::MatrixSpace.base" = type { %"class.Ipopt::ReferencedObject.base", i32, i32 }
%"class.Ipopt::SymTMatrixSpace" = type { %"class.Ipopt::SymMatrixSpace.base", i32, ptr, ptr }
%"class.Ipopt::SymMatrixSpace.base" = type { %"class.Ipopt::MatrixSpace.base" }

; Function Attrs: mustprogress nounwind uwtable
define linkonce_odr noundef ptr @_ZNK5Ipopt15SymTMatrixSpace5JcolsEv(ptr noundef nonnull align 8 dereferenceable(40) %0) #4 comdat align 2 {
  %2 = alloca ptr, align 8
  store ptr %0, ptr %2, align 8, !tbaa !220
  %3 = load ptr, ptr %2, align 8
  %4 = getelementptr inbounds nuw %"class.Ipopt::SymTMatrixSpace", ptr %3, i32 0, i32 3
  %5 = load ptr, ptr %4, align 8, !tbaa !287
  ret ptr %5
}

; Function Attrs: mustprogress nounwind uwtable
define linkonce_odr noundef ptr @_ZNK5Ipopt15SymTMatrixSpace5IrowsEv(ptr noundef nonnull align 8 dereferenceable(40) %0) #4 comdat align 2 {
  %2 = alloca ptr, align 8
  store ptr %0, ptr %2, align 8, !tbaa !220
  %3 = load ptr, ptr %2, align 8
  %4 = getelementptr inbounds nuw %"class.Ipopt::SymTMatrixSpace", ptr %3, i32 0, i32 2
  %5 = load ptr, ptr %4, align 8, !tbaa !286
  ret ptr %5
}

; Function Attrs: inlinehint mustprogress uwtable
define linkonce_odr noundef ptr @_ZNK5Ipopt10SymTMatrix5JcolsEv(ptr noundef nonnull align 8 dereferenceable(97) %0) #3 comdat align 2 {
  %2 = alloca ptr, align 8
  store ptr %0, ptr %2, align 8, !tbaa !10
  %3 = load ptr, ptr %2, align 8
  %4 = getelementptr inbounds nuw %"class.Ipopt::SymTMatrix", ptr %3, i32 0, i32 1
  %5 = load ptr, ptr %4, align 8, !tbaa !56
  %6 = call noundef ptr @_ZNK5Ipopt15SymTMatrixSpace5JcolsEv(ptr noundef nonnull align 8 dereferenceable(40) %5)
  ret ptr %6
}

; Function Attrs: inlinehint mustprogress uwtable
define linkonce_odr noundef ptr @_ZNK5Ipopt10SymTMatrix5IrowsEv(ptr noundef nonnull align 8 dereferenceable(97) %0) #3 comdat align 2 {
  %2 = alloca ptr, align 8
  store ptr %0, ptr %2, align 8, !tbaa !10
  %3 = load ptr, ptr %2, align 8
  %4 = getelementptr inbounds nuw %"class.Ipopt::SymTMatrix", ptr %3, i32 0, i32 1
  %5 = load ptr, ptr %4, align 8, !tbaa !56
  %6 = call noundef ptr @_ZNK5Ipopt15SymTMatrixSpace5IrowsEv(ptr noundef nonnull align 8 dereferenceable(40) %5)
  ret ptr %6
}

; Function Attrs: mustprogress uwtable
define void @_ZN5Ipopt13TripletHelper11FillRowCol_EiRKNS_10SymTMatrixEiiPiS4_(i32 noundef %0, ptr noundef nonnull align 8 dereferenceable(97) %1, i32 noundef %2, i32 noundef %3, ptr noundef %4, ptr noundef %5) #0 align 2 {
  %7 = alloca i32, align 4
  %8 = alloca ptr, align 8
  %9 = alloca i32, align 4
  %10 = alloca i32, align 4
  %11 = alloca ptr, align 8
  %12 = alloca ptr, align 8
  %13 = alloca ptr, align 8
  %14 = alloca ptr, align 8
  %15 = alloca i32, align 4
  store i32 %0, ptr %7, align 4, !tbaa !72
  store ptr %1, ptr %8, align 8, !tbaa !10
  store i32 %2, ptr %9, align 4, !tbaa !72
  store i32 %3, ptr %10, align 4, !tbaa !72
  store ptr %4, ptr %11, align 8, !tbaa !92
  store ptr %5, ptr %12, align 8, !tbaa !92
  call void @llvm.lifetime.start.p0(i64 8, ptr %13) #15
  %16 = load ptr, ptr %8, align 8, !tbaa !10
  %17 = call noundef ptr @_ZNK5Ipopt10SymTMatrix5IrowsEv(ptr noundef nonnull align 8 dereferenceable(97) %16)
  store ptr %17, ptr %13, align 8, !tbaa !92
  call void @llvm.lifetime.start.p0(i64 8, ptr %14) #15
  %18 = load ptr, ptr %8, align 8, !tbaa !10
  %19 = call noundef ptr @_ZNK5Ipopt10SymTMatrix5JcolsEv(ptr noundef nonnull align 8 dereferenceable(97) %18)
  store ptr %19, ptr %14, align 8, !tbaa !92
  call void @llvm.lifetime.start.p0(i64 4, ptr %15) #15
  store i32 0, ptr %15, align 4, !tbaa !72
  br label %20

20:                                               ; preds = %48, %6
  %21 = load i32, ptr %15, align 4, !tbaa !72
  %22 = load i32, ptr %7, align 4, !tbaa !72
  %23 = icmp slt i32 %21, %22
  br i1 %23, label %25, label %24

24:                                               ; preds = %20
  call void @llvm.lifetime.end.p0(i64 4, ptr %15) #15
  br label %51

25:                                               ; preds = %20
  %26 = load ptr, ptr %13, align 8, !tbaa !92
  %27 = load i32, ptr %15, align 4, !tbaa !72
  %28 = sext i32 %27 to i64
  %29 = getelementptr inbounds i32, ptr %26, i64 %28
  %30 = load i32, ptr %29, align 4, !tbaa !72
  %31 = load i32, ptr %9, align 4, !tbaa !72
  %32 = add nsw i32 %30, %31
  %33 = load ptr, ptr %11, align 8, !tbaa !92
  %34 = load i32, ptr %15, align 4, !tbaa !72
  %35 = sext i32 %34 to i64
  %36 = getelementptr inbounds i32, ptr %33, i64 %35
  store i32 %32, ptr %36, align 4, !tbaa !72
  %37 = load ptr, ptr %14, align 8, !tbaa !92
  %38 = load i32, ptr %15, align 4, !tbaa !72
  %39 = sext i32 %38 to i64
  %40 = getelementptr inbounds i32, ptr %37, i64 %39
  %41 = load i32, ptr %40, align 4, !tbaa !72
  %42 = load i32, ptr %10, align 4, !tbaa !72
  %43 = add nsw i32 %41, %42
  %44 = load ptr, ptr %12, align 8, !tbaa !92
  %45 = load i32, ptr %15, align 4, !tbaa !72
  %46 = sext i32 %45 to i64
  %47 = getelementptr inbounds i32, ptr %44, i64 %46
  store i32 %43, ptr %47, align 4, !tbaa !72
  br label %48

48:                                               ; preds = %25
  %49 = load i32, ptr %15, align 4, !tbaa !72
  %50 = add nsw i32 %49, 1
  store i32 %50, ptr %15, align 4, !tbaa !72
  br label %20, !llvm.loop !95

51:                                               ; preds = %24
  call void @llvm.lifetime.end.p0(i64 8, ptr %14) #15
  call void @llvm.lifetime.end.p0(i64 8, ptr %13) #15
  ret void
}